target datalayout = "e-m:e-p270:32:32-p271:32:32-p272:64:64-i64:64-i128:128-f80:128-n8:16:32:64-S128"
target triple = "x86_64-pc-linux-gnu"

%struct.nameData = type { [64 x i8] }
%struct.FormData_pg_database = type { i32, %struct.nameData, i32, i32, i8, i8, i8, i8, i32, i32, i32, i32 }
%struct.HeapTupleData = type { i32, %struct.ItemPointerData, i32, ptr }
%struct.ItemPointerData = type { %struct.BlockIdData, i16 }
%struct.BlockIdData = type { i16, i16 }
%struct.HeapTupleHeaderData = type { %union.anon.1, %struct.ItemPointerData, i16, i16, i8, [0 x i8] }
%union.anon.1 = type { %struct.HeapTupleFields }
%struct.HeapTupleFields = type { i32, i32, %union.anon.2 }
%union.anon.2 = type { i32 }
%struct.FunctionCallInfoBaseData = type { ptr, ptr, ptr, i32, i8, i16, [0 x %struct.NullableDatum] }
%struct.NullableDatum = type { i64, i8 }

@.str.18 = private unnamed_addr constant [13 x i8] c"dbcommands.c\00", align 1
@.str.104 = private unnamed_addr constant [36 x i8] c"database with OID %u does not exist\00", align 1
@__func__.pg_database_collation_actual_version = private unnamed_addr constant [37 x i8] c"pg_database_collation_actual_version\00", align 1

; Function Attrs: inlinehint nounwind uwtable
define internal i64 @PointerGetDatum(ptr noundef %0) #7 {
  %2 = alloca ptr, align 8
  store ptr %0, ptr %2, align 8
  %3 = load ptr, ptr %2, align 8
  %4 = ptrtoint ptr %3 to i64
  ret i64 %4
}

; Function Attrs: inlinehint nounwind uwtable
define internal ptr @DatumGetPointer(i64 noundef %0) #7 {
  %2 = alloca i64, align 8
  store i64 %0, ptr %2, align 8
  %3 = load i64, ptr %2, align 8
  %4 = inttoptr i64 %3 to ptr
  ret ptr %4
}

; Function Attrs: inlinehint nounwind uwtable
define internal ptr @GETSTRUCT(ptr noundef %0) #7 {
  %2 = alloca ptr, align 8
  store ptr %0, ptr %2, align 8
  %3 = load ptr, ptr %2, align 8
  %4 = getelementptr inbounds nuw %struct.HeapTupleData, ptr %3, i32 0, i32 3
  %5 = load ptr, ptr %4, align 8
  %6 = load ptr, ptr %2, align 8
  %7 = getelementptr inbounds nuw %struct.HeapTupleData, ptr %6, i32 0, i32 3
  %8 = load ptr, ptr %7, align 8
  %9 = getelementptr inbounds nuw %struct.HeapTupleHeaderData, ptr %8, i32 0, i32 4
  %10 = load i8, ptr %9, align 2
  %11 = zext i8 %10 to i32
  %12 = sext i32 %11 to i64
  %13 = getelementptr inbounds i8, ptr %5, i64 %12
  ret ptr %13
}

; Function Attrs: inlinehint nounwind uwtable
define internal i64 @ObjectIdGetDatum(i32 noundef %0) #7 {
  %2 = alloca i32, align 4
  store i32 %0, ptr %2, align 4
  %3 = load i32, ptr %2, align 4
  %4 = zext i32 %3 to i64
  ret i64 %4
}

; Function Attrs: inlinehint nounwind uwtable
define internal i32 @DatumGetObjectId(i64 noundef %0) #7 {
  %2 = alloca i64, align 8
  store i64 %0, ptr %2, align 8
  %3 = load i64, ptr %2, align 8
  %4 = trunc i64 %3 to i32
  ret i32 %4
}

; Function Attrs: nounwind uwtable
define dso_local i64 @pg_database_collation_actual_version(ptr noundef %0) #0 {
  %2 = alloca i64, align 8
  %3 = alloca ptr, align 8
  %4 = alloca i32, align 4
  %5 = alloca ptr, align 8
  %6 = alloca i8, align 1
  %7 = alloca i64, align 8
  %8 = alloca ptr, align 8
  %9 = alloca i32, align 4
  store ptr %0, ptr %3, align 8
  call void @llvm.lifetime.start.p0(i64 4, ptr %4) #14
  %10 = load ptr, ptr %3, align 8
  %11 = getelementptr inbounds nuw %struct.FunctionCallInfoBaseData, ptr %10, i32 0, i32 6
  %12 = getelementptr inbounds [0 x %struct.NullableDatum], ptr %11, i64 0, i64 0
  %13 = getelementptr inbounds nuw %struct.NullableDatum, ptr %12, i32 0, i32 0
  %14 = load i64, ptr %13, align 8
  %15 = call i32 @DatumGetObjectId(i64 noundef %14)
  store i32 %15, ptr %4, align 4
  call void @llvm.lifetime.start.p0(i64 8, ptr %5) #14
  call void @llvm.lifetime.start.p0(i64 1, ptr %6) #14
  call void @llvm.lifetime.start.p0(i64 8, ptr %7) #14
  call void @llvm.lifetime.start.p0(i64 8, ptr %8) #14
  %16 = load i32, ptr %4, align 4
  %17 = call i64 @ObjectIdGetDatum(i32 noundef %16)
  %18 = call ptr @SearchSysCache1(i32 noundef 21, i64 noundef %17)
  store ptr %18, ptr %5, align 8
  %19 = load ptr, ptr %5, align 8
  %20 = icmp ne ptr %19, null
  br i1 %20, label %34, label %21

21:                                               ; preds = %1
  br label %22

22:                                               ; preds = %21
  br i1 true, label %23, label %25

23:                                               ; preds = %22
  %24 = call zeroext i1 @errstart_cold(i32 noundef 21, ptr noundef null) #17
  br i1 %24, label %27, label %31

25:                                               ; preds = %22
  %26 = call zeroext i1 @errstart(i32 noundef 21, ptr noundef null)
  br i1 %26, label %27, label %31

27:                                               ; preds = %25, %23
  %28 = call i32 @errcode(i32 noundef 67137668)
  %29 = load i32, ptr %4, align 4
  %30 = call i32 (ptr, ...) @errmsg(ptr noundef @.str.104, i32 noundef %29)
  call void @errfinish(ptr noundef @.str.18, i32 noundef 2762, ptr noundef @__func__.pg_database_collation_actual_version)
  br label %31

31:                                               ; preds = %27, %25, %23
  unreachable

32:                                               ; No predecessors!
  br label %33

33:                                               ; preds = %32
  br label %34

34:                                               ; preds = %33, %1
  %35 = load ptr, ptr %5, align 8
  %36 = call ptr @GETSTRUCT(ptr noundef %35)
  %37 = getelementptr inbounds nuw %struct.FormData_pg_database, ptr %36, i32 0, i32 4
  %38 = load i8, ptr %37, align 4
  store i8 %38, ptr %6, align 1
  %39 = load i8, ptr %6, align 1
  %40 = sext i8 %39 to i32
  %41 = icmp eq i32 %40, 99
  br i1 %41, label %42, label %45

42:                                               ; preds = %34
  %43 = load ptr, ptr %5, align 8
  %44 = call i64 @SysCacheGetAttrNotNull(i32 noundef 21, ptr noundef %43, i16 noundef signext 13)
  store i64 %44, ptr %7, align 8
  br label %48

45:                                               ; preds = %34
  %46 = load ptr, ptr %5, align 8
  %47 = call i64 @SysCacheGetAttrNotNull(i32 noundef 21, ptr noundef %46, i16 noundef signext 15)
  store i64 %47, ptr %7, align 8
  br label %48

48:                                               ; preds = %45, %42
  %49 = load i8, ptr %6, align 1
  %50 = load i64, ptr %7, align 8
  %51 = call ptr @DatumGetPointer(i64 noundef %50)
  %52 = call ptr @text_to_cstring(ptr noundef %51)
  %53 = call ptr @get_collation_actual_version(i8 noundef signext %49, ptr noundef %52)
  store ptr %53, ptr %8, align 8
  %54 = load ptr, ptr %5, align 8
  call void @ReleaseSysCache(ptr noundef %54)
  %55 = load ptr, ptr %8, align 8
  %56 = icmp ne ptr %55, null
  br i1 %56, label %57, label %61

57:                                               ; preds = %48
  %58 = load ptr, ptr %8, align 8
  %59 = call ptr @cstring_to_text(ptr noundef %58)
  %60 = call i64 @PointerGetDatum(ptr noundef %59)
  store i64 %60, ptr %2, align 8
  store i32 1, ptr %9, align 4
  br label %68

61:                                               ; preds = %48
  br label %62

62:                                               ; preds = %61
  %63 = load ptr, ptr %3, align 8
  %64 = getelementptr inbounds nuw %struct.FunctionCallInfoBaseData, ptr %63, i32 0, i32 4
  store i8 1, ptr %64, align 4
  store i64 0, ptr %2, align 8
  store i32 1, ptr %9, align 4
  br label %68

65:                                               ; No predecessors!
  br label %66

66:                                               ; preds = %65
  br label %67

67:                                               ; preds = %66
  store i32 0, ptr %9, align 4
  br label %68

68:                                               ; preds = %67, %62, %57
  call void @llvm.lifetime.end.p0(i64 8, ptr %8) #14
  call void @llvm.lifetime.end.p0(i64 8, ptr %7) #14
  call void @llvm.lifetime.end.p0(i64 1, ptr %6) #14
  call void @llvm.lifetime.end.p0(i64 8, ptr %5) #14
  call void @llvm.lifetime.end.p0(i64 4, ptr %4) #14
  %69 = load i32, ptr %9, align 4
  switch i32 %69, label %72 [
    i32 0, label %70
    i32 1, label %70
  ]

70:                                               ; preds = %68, %68
  %71 = load i64, ptr %2, align 8
  ret i64 %71

72:                                               ; preds = %68
  unreachable
}