; Function Attrs: nounwind uwtable
define dso_local i64 @pg_database_collation_actual_version(ptr noundef captures(none) %0) local_unnamed_addr #0 {
  %2 = getelementptr inbounds nuw i8, ptr %0, i64 32
  %3 = load i64, ptr %2, align 8
  %4 = and i64 %3, 4294967295
  %5 = tail call ptr @SearchSysCache1(i32 noundef 21, i64 noundef %4) #16
  %.not = icmp eq ptr %5, null
  br i1 %.not, label %6, label %11

6:                                                ; preds = %1
  %7 = trunc i64 %3 to i32
  %8 = tail call zeroext i1 @errstart_cold(i32 noundef 21, ptr noundef null) #19
  tail call void @llvm.assume(i1 %8)
  %9 = tail call i32 @errcode(i32 noundef 67137668) #16
  %10 = tail call i32 (ptr, ...) @errmsg(ptr noundef nonnull @.str.104, i32 noundef %7) #16
  tail call void @errfinish(ptr noundef nonnull @.str.18, i32 noundef 2762, ptr noundef nonnull @__func__.pg_database_collation_actual_version) #16
  unreachable

11:                                               ; preds = %1
  %12 = getelementptr i8, ptr %5, i64 16
  %.val = load ptr, ptr %12, align 8
  %13 = getelementptr inbounds nuw i8, ptr %.val, i64 22
  %14 = load i8, ptr %13, align 2
  %15 = zext i8 %14 to i64
  %16 = getelementptr inbounds nuw i8, ptr %.val, i64 %15
  %17 = getelementptr inbounds nuw i8, ptr %16, i64 76
  %18 = load i8, ptr %17, align 4
  %19 = icmp eq i8 %18, 99
  %. = select i1 %19, i16 13, i16 15
  %20 = tail call i64 @SysCacheGetAttrNotNull(i32 noundef 21, ptr noundef nonnull %5, i16 noundef signext %.) #16
  %21 = inttoptr i64 %20 to ptr
  %22 = tail call ptr @text_to_cstring(ptr noundef %21) #16
  %23 = tail call ptr @get_collation_actual_version(i8 noundef signext %18, ptr noundef %22) #16
  tail call void @ReleaseSysCache(ptr noundef nonnull %5) #16
  %.not17 = icmp eq ptr %23, null
  br i1 %.not17, label %27, label %24

24:                                               ; preds = %11
  %25 = tail call ptr @cstring_to_text(ptr noundef nonnull %23) #16
  %26 = ptrtoint ptr %25 to i64
  br label %29

27:                                               ; preds = %11
  %28 = getelementptr inbounds nuw i8, ptr %0, i64 28
  store i8 1, ptr %28, align 4
  br label %29

29:                                               ; preds = %27, %24
  %.0 = phi i64 [ %26, %24 ], [ 0, %27 ]
  ret i64 %.0
}